target datalayout = "e-m:e-p270:32:32-p271:32:32-p272:64:64-i64:64-i128:128-f80:128-n8:16:32:64-S128"
target triple = "x86_64-unknown-linux-gnu"

%class.ptr_vector.5 = type { %class.vector.6 }
%class.vector.6 = type { ptr }
%"class.grobner::monomial" = type { %class.rational, %class.ptr_vector.5 }
%class.rational = type { %class.mpq }
%class.mpq = type { %class.mpz, %class.mpz }
%class.mpz = type { i32, i8, ptr }

; Function Attrs: mustprogress nounwind uwtable
define linkonce_odr hidden noundef i32 @_ZNK6vectorIP4exprLb0EjE4sizeEv(ptr noundef nonnull align 8 dereferenceable(8) %this) #5 comdat align 2 {
entry:
  %retval = alloca i32, align 4
  %this.addr = alloca ptr, align 8
  store ptr %this, ptr %this.addr, align 8
  %this1 = load ptr, ptr %this.addr, align 8
  %m_data = getelementptr inbounds %class.vector.6, ptr %this1, i32 0, i32 0
  %0 = load ptr, ptr %m_data, align 8
  %cmp = icmp eq ptr %0, null
  br i1 %cmp, label %if.then, label %if.end

if.then:                                          ; preds = %entry
  store i32 0, ptr %retval, align 4
  br label %return

if.end:                                           ; preds = %entry
  %m_data2 = getelementptr inbounds %class.vector.6, ptr %this1, i32 0, i32 0
  %1 = load ptr, ptr %m_data2, align 8
  %arrayidx = getelementptr inbounds i32, ptr %1, i64 -1
  %2 = load i32, ptr %arrayidx, align 4
  store i32 %2, ptr %retval, align 4
  br label %return

return:                                           ; preds = %if.end, %if.then
  %3 = load i32, ptr %retval, align 4
  ret i32 %3
}

; Function Attrs: mustprogress nounwind uwtable
define linkonce_odr hidden noundef ptr @_ZNK6vectorIP4exprLb0EjE3endEv(ptr noundef nonnull align 8 dereferenceable(8) %this) #5 comdat align 2 {
entry:
  %this.addr = alloca ptr, align 8
  store ptr %this, ptr %this.addr, align 8
  %this1 = load ptr, ptr %this.addr, align 8
  %m_data = getelementptr inbounds %class.vector.6, ptr %this1, i32 0, i32 0
  %0 = load ptr, ptr %m_data, align 8
  %call = call noundef i32 @_ZNK6vectorIP4exprLb0EjE4sizeEv(ptr noundef nonnull align 8 dereferenceable(8) %this1)
  %idx.ext = zext i32 %call to i64
  %add.ptr = getelementptr inbounds ptr, ptr %0, i64 %idx.ext
  ret ptr %add.ptr
}

; Function Attrs: mustprogress nounwind uwtable
define linkonce_odr hidden noundef ptr @_ZNK6vectorIP4exprLb0EjE5beginEv(ptr noundef nonnull align 8 dereferenceable(8) %this) #5 comdat align 2 {
entry:
  %this.addr = alloca ptr, align 8
  store ptr %this, ptr %this.addr, align 8
  %this1 = load ptr, ptr %this.addr, align 8
  %m_data = getelementptr inbounds %class.vector.6, ptr %this1, i32 0, i32 0
  %0 = load ptr, ptr %m_data, align 8
  ret ptr %0
}

; Function Attrs: mustprogress uwtable
define linkonce_odr hidden noundef i32 @_ZNK7grobner8monomial10get_degreeEv(ptr noundef nonnull align 8 dereferenceable(40) %this) #4 comdat align 2 {
entry:
  %this.addr = alloca ptr, align 8
  store ptr %this, ptr %this.addr, align 8
  %this1 = load ptr, ptr %this.addr, align 8
  %m_vars = getelementptr inbounds %"class.grobner::monomial", ptr %this1, i32 0, i32 1
  %call = call noundef i32 @_ZNK6vectorIP4exprLb0EjE4sizeEv(ptr noundef nonnull align 8 dereferenceable(8) %m_vars)
  ret i32 %call
}

; Function Attrs: mustprogress uwtable
define hidden noundef zeroext i1 @_ZN7grobner19is_eq_monomial_bodyEPKNS_8monomialES2_(ptr noundef %m1, ptr noundef %m2) #4 align 2 {
entry:
  %retval = alloca i1, align 1
  %m1.addr = alloca ptr, align 8
  %m2.addr = alloca ptr, align 8
  %it1 = alloca ptr, align 8
  %it2 = alloca ptr, align 8
  %end1 = alloca ptr, align 8
  %v1 = alloca ptr, align 8
  %v2 = alloca ptr, align 8
  store ptr %m1, ptr %m1.addr, align 8
  store ptr %m2, ptr %m2.addr, align 8
  %0 = load ptr, ptr %m1.addr, align 8
  %call = call noundef i32 @_ZNK7grobner8monomial10get_degreeEv(ptr noundef nonnull align 8 dereferenceable(40) %0)
  %1 = load ptr, ptr %m2.addr, align 8
  %call1 = call noundef i32 @_ZNK7grobner8monomial10get_degreeEv(ptr noundef nonnull align 8 dereferenceable(40) %1)
  %cmp = icmp ne i32 %call, %call1
  br i1 %cmp, label %if.then, label %if.end

if.then:                                          ; preds = %entry
  store i1 false, ptr %retval, align 1
  br label %return

if.end:                                           ; preds = %entry
  %2 = load ptr, ptr %m1.addr, align 8
  %m_vars = getelementptr inbounds %"class.grobner::monomial", ptr %2, i32 0, i32 1
  %call2 = call noundef ptr @_ZNK6vectorIP4exprLb0EjE5beginEv(ptr noundef nonnull align 8 dereferenceable(8) %m_vars)
  store ptr %call2, ptr %it1, align 8
  %3 = load ptr, ptr %m2.addr, align 8
  %m_vars3 = getelementptr inbounds %"class.grobner::monomial", ptr %3, i32 0, i32 1
  %call4 = call noundef ptr @_ZNK6vectorIP4exprLb0EjE5beginEv(ptr noundef nonnull align 8 dereferenceable(8) %m_vars3)
  store ptr %call4, ptr %it2, align 8
  %4 = load ptr, ptr %m1.addr, align 8
  %m_vars5 = getelementptr inbounds %"class.grobner::monomial", ptr %4, i32 0, i32 1
  %call6 = call noundef ptr @_ZNK6vectorIP4exprLb0EjE3endEv(ptr noundef nonnull align 8 dereferenceable(8) %m_vars5)
  store ptr %call6, ptr %end1, align 8
  br label %for.cond

for.cond:                                         ; preds = %for.inc, %if.end
  %5 = load ptr, ptr %it1, align 8
  %6 = load ptr, ptr %end1, align 8
  %cmp7 = icmp ne ptr %5, %6
  br i1 %cmp7, label %for.body, label %for.end

for.body:                                         ; preds = %for.cond
  %7 = load ptr, ptr %it1, align 8
  %8 = load ptr, ptr %7, align 8
  store ptr %8, ptr %v1, align 8
  %9 = load ptr, ptr %it2, align 8
  %10 = load ptr, ptr %9, align 8
  store ptr %10, ptr %v2, align 8
  %11 = load ptr, ptr %v1, align 8
  %12 = load ptr, ptr %v2, align 8
  %cmp8 = icmp ne ptr %11, %12
  br i1 %cmp8, label %if.then9, label %if.end10

if.then9:                                         ; preds = %for.body
  store i1 false, ptr %retval, align 1
  br label %return

if.end10:                                         ; preds = %for.body
  br label %for.inc

for.inc:                                          ; preds = %if.end10
  %13 = load ptr, ptr %it1, align 8
  %incdec.ptr = getelementptr inbounds ptr, ptr %13, i32 1
  store ptr %incdec.ptr, ptr %it1, align 8
  %14 = load ptr, ptr %it2, align 8
  %incdec.ptr11 = getelementptr inbounds ptr, ptr %14, i32 1
  store ptr %incdec.ptr11, ptr %it2, align 8
  br label %for.cond, !llvm.loop !21

for.end:                                          ; preds = %for.cond
  store i1 true, ptr %retval, align 1
  br label %return

return:                                           ; preds = %for.end, %if.then9, %if.then
  %15 = load i1, ptr %retval, align 1
  ret i1 %15
}