; Function Attrs: mustprogress nofree norecurse nosync nounwind willreturn memory(read, inaccessiblemem: none) uwtable
define hidden noundef zeroext i1 @_ZN7grobner19is_eq_monomial_bodyEPKNS_8monomialES2_(ptr nocapture noundef readonly %m1, ptr nocapture noundef readonly %m2) local_unnamed_addr #8 align 2 {
entry:
  %m_vars.i = getelementptr inbounds i8, ptr %m1, i64 32
  %0 = load ptr, ptr %m_vars.i, align 8
  %cmp.i.i = icmp eq ptr %0, null
  br i1 %cmp.i.i, label %_ZNK7grobner8monomial10get_degreeEv.exit, label %if.end.i.i

if.end.i.i:                                       ; preds = %entry
  %arrayidx.i.i = getelementptr inbounds i8, ptr %0, i64 -4
  %1 = load i32, ptr %arrayidx.i.i, align 4
  br label %_ZNK7grobner8monomial10get_degreeEv.exit

_ZNK7grobner8monomial10get_degreeEv.exit:         ; preds = %entry, %if.end.i.i
  %retval.0.i.i = phi i32 [ %1, %if.end.i.i ], [ 0, %entry ]
  %m_vars.i7 = getelementptr inbounds i8, ptr %m2, i64 32
  %2 = load ptr, ptr %m_vars.i7, align 8
  %cmp.i.i8 = icmp eq ptr %2, null
  br i1 %cmp.i.i8, label %_ZNK7grobner8monomial10get_degreeEv.exit12, label %if.end.i.i9

if.end.i.i9:                                      ; preds = %_ZNK7grobner8monomial10get_degreeEv.exit
  %arrayidx.i.i10 = getelementptr inbounds i8, ptr %2, i64 -4
  %3 = load i32, ptr %arrayidx.i.i10, align 4
  br label %_ZNK7grobner8monomial10get_degreeEv.exit12

_ZNK7grobner8monomial10get_degreeEv.exit12:       ; preds = %_ZNK7grobner8monomial10get_degreeEv.exit, %if.end.i.i9
  %retval.0.i.i11 = phi i32 [ %3, %if.end.i.i9 ], [ 0, %_ZNK7grobner8monomial10get_degreeEv.exit ]
  %cmp.not = icmp ne i32 %retval.0.i.i, %retval.0.i.i11
  %brmerge = or i1 %cmp.not, %cmp.i.i
  %not.cmp.not = xor i1 %cmp.not, true
  br i1 %brmerge, label %return, label %_ZNK6vectorIP4exprLb0EjE3endEv.exit

_ZNK6vectorIP4exprLb0EjE3endEv.exit:              ; preds = %_ZNK7grobner8monomial10get_degreeEv.exit12
  %arrayidx.i.i15 = getelementptr inbounds i8, ptr %0, i64 -4
  %4 = load i32, ptr %arrayidx.i.i15, align 4
  %5 = zext i32 %4 to i64
  %add.ptr.i = getelementptr inbounds ptr, ptr %0, i64 %5
  %cmp7.not17 = icmp eq i32 %4, 0
  br i1 %cmp7.not17, label %return, label %for.body

for.body:                                         ; preds = %_ZNK6vectorIP4exprLb0EjE3endEv.exit, %for.body
  %it1.019 = phi ptr [ %incdec.ptr, %for.body ], [ %0, %_ZNK6vectorIP4exprLb0EjE3endEv.exit ]
  %it2.018 = phi ptr [ %incdec.ptr11, %for.body ], [ %2, %_ZNK6vectorIP4exprLb0EjE3endEv.exit ]
  %6 = load ptr, ptr %it1.019, align 8
  %7 = load ptr, ptr %it2.018, align 8
  %cmp8.not = icmp eq ptr %6, %7
  %incdec.ptr = getelementptr inbounds i8, ptr %it1.019, i64 8
  %incdec.ptr11 = getelementptr inbounds i8, ptr %it2.018, i64 8
  %cmp7.not = icmp ne ptr %incdec.ptr, %add.ptr.i
  %or.cond.not = select i1 %cmp8.not, i1 %cmp7.not, i1 false
  br i1 %or.cond.not, label %for.body, label %return, !llvm.loop !25

return:                                           ; preds = %for.body, %_ZNK7grobner8monomial10get_degreeEv.exit12, %_ZNK6vectorIP4exprLb0EjE3endEv.exit
  %retval.0 = phi i1 [ %not.cmp.not, %_ZNK7grobner8monomial10get_degreeEv.exit12 ], [ true, %_ZNK6vectorIP4exprLb0EjE3endEv.exit ], [ %cmp8.not, %for.body ]
  ret i1 %retval.0
}